target datalayout = "e-m:e-p270:32:32-p271:32:32-p272:64:64-i64:64-i128:128-f80:128-n8:16:32:64-S128"
target triple = "x86_64-pc-linux-gnu"

%struct.evp_cipher_ctx_st = type { ptr, ptr, ptr, i32, i32, i32, [16 x i8], [16 x i8], [32 x i8], i32, i32, i32, i32, [32 x i8] }
%struct.evp_cipher_st = type { i32, i32, i32, i32, i32, i32, ptr, ptr, ptr, ptr, ptr }

; Function Attrs: nounwind uwtable
define hidden i32 @EVP_EncryptUpdate(ptr noundef %0, ptr noundef %1, ptr noundef %2, ptr noundef %3, i32 noundef %4) #0 {
  %6 = alloca i32, align 4
  %7 = alloca ptr, align 8
  %8 = alloca ptr, align 8
  %9 = alloca ptr, align 8
  %10 = alloca ptr, align 8
  %11 = alloca i32, align 4
  %12 = alloca i32, align 4
  %13 = alloca i32, align 4
  %14 = alloca i32, align 4
  %15 = alloca i32, align 4
  store ptr %0, ptr %7, align 8, !tbaa !10
  store ptr %1, ptr %8, align 8, !tbaa !25
  store ptr %2, ptr %9, align 8, !tbaa !39
  store ptr %3, ptr %10, align 8, !tbaa !25
  store i32 %4, ptr %11, align 4, !tbaa !6
  call void @llvm.lifetime.start.p0(i64 4, ptr %12) #7
  call void @llvm.lifetime.start.p0(i64 4, ptr %13) #7
  call void @llvm.lifetime.start.p0(i64 4, ptr %14) #7
  %16 = load ptr, ptr %7, align 8, !tbaa !10
  %17 = getelementptr inbounds nuw %struct.evp_cipher_ctx_st, ptr %16, i32 0, i32 0
  %18 = load ptr, ptr %17, align 8, !tbaa !13
  %19 = getelementptr inbounds nuw %struct.evp_cipher_st, ptr %18, i32 0, i32 5
  %20 = load i32, ptr %19, align 4, !tbaa !20
  %21 = and i32 %20, 1024
  %22 = icmp ne i32 %21, 0
  br i1 %22, label %23, label %42

23:                                               ; preds = %5
  %24 = load ptr, ptr %7, align 8, !tbaa !10
  %25 = getelementptr inbounds nuw %struct.evp_cipher_ctx_st, ptr %24, i32 0, i32 0
  %26 = load ptr, ptr %25, align 8, !tbaa !13
  %27 = getelementptr inbounds nuw %struct.evp_cipher_st, ptr %26, i32 0, i32 8
  %28 = load ptr, ptr %27, align 8, !tbaa !41
  %29 = load ptr, ptr %7, align 8, !tbaa !10
  %30 = load ptr, ptr %8, align 8, !tbaa !25
  %31 = load ptr, ptr %10, align 8, !tbaa !25
  %32 = load i32, ptr %11, align 4, !tbaa !6
  %33 = sext i32 %32 to i64
  %34 = call i32 %28(ptr noundef %29, ptr noundef %30, ptr noundef %31, i64 noundef %33)
  store i32 %34, ptr %12, align 4, !tbaa !6
  %35 = load i32, ptr %12, align 4, !tbaa !6
  %36 = icmp slt i32 %35, 0
  br i1 %36, label %37, label %38

37:                                               ; preds = %23
  store i32 0, ptr %6, align 4
  store i32 1, ptr %15, align 4
  br label %203

38:                                               ; preds = %23
  %39 = load i32, ptr %12, align 4, !tbaa !6
  %40 = load ptr, ptr %9, align 8, !tbaa !39
  store i32 %39, ptr %40, align 4, !tbaa !6
  br label %41

41:                                               ; preds = %38
  store i32 1, ptr %6, align 4
  store i32 1, ptr %15, align 4
  br label %203

42:                                               ; preds = %5
  %43 = load i32, ptr %11, align 4, !tbaa !6
  %44 = icmp sle i32 %43, 0
  br i1 %44, label %45, label %50

45:                                               ; preds = %42
  %46 = load ptr, ptr %9, align 8, !tbaa !39
  store i32 0, ptr %46, align 4, !tbaa !6
  %47 = load i32, ptr %11, align 4, !tbaa !6
  %48 = icmp eq i32 %47, 0
  %49 = zext i1 %48 to i32
  store i32 %49, ptr %6, align 4
  store i32 1, ptr %15, align 4
  br label %203

50:                                               ; preds = %42
  %51 = load ptr, ptr %7, align 8, !tbaa !10
  %52 = getelementptr inbounds nuw %struct.evp_cipher_ctx_st, ptr %51, i32 0, i32 9
  %53 = load i32, ptr %52, align 4, !tbaa !33
  %54 = icmp eq i32 %53, 0
  br i1 %54, label %55, label %80

55:                                               ; preds = %50
  %56 = load i32, ptr %11, align 4, !tbaa !6
  %57 = load ptr, ptr %7, align 8, !tbaa !10
  %58 = getelementptr inbounds nuw %struct.evp_cipher_ctx_st, ptr %57, i32 0, i32 12
  %59 = load i32, ptr %58, align 8, !tbaa !36
  %60 = and i32 %56, %59
  %61 = icmp eq i32 %60, 0
  br i1 %61, label %62, label %80

62:                                               ; preds = %55
  %63 = load ptr, ptr %7, align 8, !tbaa !10
  %64 = getelementptr inbounds nuw %struct.evp_cipher_ctx_st, ptr %63, i32 0, i32 0
  %65 = load ptr, ptr %64, align 8, !tbaa !13
  %66 = getelementptr inbounds nuw %struct.evp_cipher_st, ptr %65, i32 0, i32 8
  %67 = load ptr, ptr %66, align 8, !tbaa !41
  %68 = load ptr, ptr %7, align 8, !tbaa !10
  %69 = load ptr, ptr %8, align 8, !tbaa !25
  %70 = load ptr, ptr %10, align 8, !tbaa !25
  %71 = load i32, ptr %11, align 4, !tbaa !6
  %72 = sext i32 %71 to i64
  %73 = call i32 %67(ptr noundef %68, ptr noundef %69, ptr noundef %70, i64 noundef %72)
  %74 = icmp ne i32 %73, 0
  br i1 %74, label %75, label %78

75:                                               ; preds = %62
  %76 = load i32, ptr %11, align 4, !tbaa !6
  %77 = load ptr, ptr %9, align 8, !tbaa !39
  store i32 %76, ptr %77, align 4, !tbaa !6
  store i32 1, ptr %6, align 4
  store i32 1, ptr %15, align 4
  br label %203

78:                                               ; preds = %62
  %79 = load ptr, ptr %9, align 8, !tbaa !39
  store i32 0, ptr %79, align 4, !tbaa !6
  store i32 0, ptr %6, align 4
  store i32 1, ptr %15, align 4
  br label %203

80:                                               ; preds = %55, %50
  %81 = load ptr, ptr %7, align 8, !tbaa !10
  %82 = getelementptr inbounds nuw %struct.evp_cipher_ctx_st, ptr %81, i32 0, i32 9
  %83 = load i32, ptr %82, align 4, !tbaa !33
  store i32 %83, ptr %12, align 4, !tbaa !6
  %84 = load ptr, ptr %7, align 8, !tbaa !10
  %85 = getelementptr inbounds nuw %struct.evp_cipher_ctx_st, ptr %84, i32 0, i32 0
  %86 = load ptr, ptr %85, align 8, !tbaa !13
  %87 = getelementptr inbounds nuw %struct.evp_cipher_st, ptr %86, i32 0, i32 1
  %88 = load i32, ptr %87, align 4, !tbaa !35
  store i32 %88, ptr %14, align 4, !tbaa !6
  %89 = load i32, ptr %12, align 4, !tbaa !6
  %90 = icmp ne i32 %89, 0
  br i1 %90, label %91, label %154

91:                                               ; preds = %80
  %92 = load i32, ptr %12, align 4, !tbaa !6
  %93 = load i32, ptr %11, align 4, !tbaa !6
  %94 = add nsw i32 %92, %93
  %95 = load i32, ptr %14, align 4, !tbaa !6
  %96 = icmp slt i32 %94, %95
  br i1 %96, label %97, label %112

97:                                               ; preds = %91
  %98 = load ptr, ptr %7, align 8, !tbaa !10
  %99 = getelementptr inbounds nuw %struct.evp_cipher_ctx_st, ptr %98, i32 0, i32 8
  %100 = load i32, ptr %12, align 4, !tbaa !6
  %101 = sext i32 %100 to i64
  %102 = getelementptr inbounds [32 x i8], ptr %99, i64 0, i64 %101
  %103 = load ptr, ptr %10, align 8, !tbaa !25
  %104 = load i32, ptr %11, align 4, !tbaa !6
  %105 = sext i32 %104 to i64
  call void @llvm.memcpy.p0.p0.i64(ptr align 1 %102, ptr align 1 %103, i64 %105, i1 false)
  %106 = load i32, ptr %11, align 4, !tbaa !6
  %107 = load ptr, ptr %7, align 8, !tbaa !10
  %108 = getelementptr inbounds nuw %struct.evp_cipher_ctx_st, ptr %107, i32 0, i32 9
  %109 = load i32, ptr %108, align 4, !tbaa !33
  %110 = add nsw i32 %109, %106
  store i32 %110, ptr %108, align 4, !tbaa !33
  %111 = load ptr, ptr %9, align 8, !tbaa !39
  store i32 0, ptr %111, align 4, !tbaa !6
  store i32 1, ptr %6, align 4
  store i32 1, ptr %15, align 4
  br label %203

112:                                              ; preds = %91
  %113 = load i32, ptr %14, align 4, !tbaa !6
  %114 = load i32, ptr %12, align 4, !tbaa !6
  %115 = sub nsw i32 %113, %114
  store i32 %115, ptr %13, align 4, !tbaa !6
  %116 = load ptr, ptr %7, align 8, !tbaa !10
  %117 = getelementptr inbounds nuw %struct.evp_cipher_ctx_st, ptr %116, i32 0, i32 8
  %118 = load i32, ptr %12, align 4, !tbaa !6
  %119 = sext i32 %118 to i64
  %120 = getelementptr inbounds [32 x i8], ptr %117, i64 0, i64 %119
  %121 = load ptr, ptr %10, align 8, !tbaa !25
  %122 = load i32, ptr %13, align 4, !tbaa !6
  %123 = sext i32 %122 to i64
  call void @llvm.memcpy.p0.p0.i64(ptr align 1 %120, ptr align 1 %121, i64 %123, i1 false)
  %124 = load ptr, ptr %7, align 8, !tbaa !10
  %125 = getelementptr inbounds nuw %struct.evp_cipher_ctx_st, ptr %124, i32 0, i32 0
  %126 = load ptr, ptr %125, align 8, !tbaa !13
  %127 = getelementptr inbounds nuw %struct.evp_cipher_st, ptr %126, i32 0, i32 8
  %128 = load ptr, ptr %127, align 8, !tbaa !41
  %129 = load ptr, ptr %7, align 8, !tbaa !10
  %130 = load ptr, ptr %8, align 8, !tbaa !25
  %131 = load ptr, ptr %7, align 8, !tbaa !10
  %132 = getelementptr inbounds nuw %struct.evp_cipher_ctx_st, ptr %131, i32 0, i32 8
  %133 = getelementptr inbounds [32 x i8], ptr %132, i64 0, i64 0
  %134 = load i32, ptr %14, align 4, !tbaa !6
  %135 = sext i32 %134 to i64
  %136 = call i32 %128(ptr noundef %129, ptr noundef %130, ptr noundef %133, i64 noundef %135)
  %137 = icmp ne i32 %136, 0
  br i1 %137, label %139, label %138

138:                                              ; preds = %112
  store i32 0, ptr %6, align 4
  store i32 1, ptr %15, align 4
  br label %203

139:                                              ; preds = %112
  %140 = load i32, ptr %13, align 4, !tbaa !6
  %141 = load i32, ptr %11, align 4, !tbaa !6
  %142 = sub nsw i32 %141, %140
  store i32 %142, ptr %11, align 4, !tbaa !6
  %143 = load i32, ptr %13, align 4, !tbaa !6
  %144 = load ptr, ptr %10, align 8, !tbaa !25
  %145 = sext i32 %143 to i64
  %146 = getelementptr inbounds i8, ptr %144, i64 %145
  store ptr %146, ptr %10, align 8, !tbaa !25
  %147 = load i32, ptr %14, align 4, !tbaa !6
  %148 = load ptr, ptr %8, align 8, !tbaa !25
  %149 = sext i32 %147 to i64
  %150 = getelementptr inbounds i8, ptr %148, i64 %149
  store ptr %150, ptr %8, align 8, !tbaa !25
  %151 = load i32, ptr %14, align 4, !tbaa !6
  %152 = load ptr, ptr %9, align 8, !tbaa !39
  store i32 %151, ptr %152, align 4, !tbaa !6
  br label %153

153:                                              ; preds = %139
  br label %156

154:                                              ; preds = %80
  %155 = load ptr, ptr %9, align 8, !tbaa !39
  store i32 0, ptr %155, align 4, !tbaa !6
  br label %156

156:                                              ; preds = %154, %153
  %157 = load i32, ptr %11, align 4, !tbaa !6
  %158 = load ptr, ptr %7, align 8, !tbaa !10
  %159 = getelementptr inbounds nuw %struct.evp_cipher_ctx_st, ptr %158, i32 0, i32 12
  %160 = load i32, ptr %159, align 8, !tbaa !36
  %161 = and i32 %157, %160
  store i32 %161, ptr %12, align 4, !tbaa !6
  %162 = load i32, ptr %12, align 4, !tbaa !6
  %163 = load i32, ptr %11, align 4, !tbaa !6
  %164 = sub nsw i32 %163, %162
  store i32 %164, ptr %11, align 4, !tbaa !6
  %165 = load i32, ptr %11, align 4, !tbaa !6
  %166 = icmp sgt i32 %165, 0
  br i1 %166, label %167, label %186

167:                                              ; preds = %156
  %168 = load ptr, ptr %7, align 8, !tbaa !10
  %169 = getelementptr inbounds nuw %struct.evp_cipher_ctx_st, ptr %168, i32 0, i32 0
  %170 = load ptr, ptr %169, align 8, !tbaa !13
  %171 = getelementptr inbounds nuw %struct.evp_cipher_st, ptr %170, i32 0, i32 8
  %172 = load ptr, ptr %171, align 8, !tbaa !41
  %173 = load ptr, ptr %7, align 8, !tbaa !10
  %174 = load ptr, ptr %8, align 8, !tbaa !25
  %175 = load ptr, ptr %10, align 8, !tbaa !25
  %176 = load i32, ptr %11, align 4, !tbaa !6
  %177 = sext i32 %176 to i64
  %178 = call i32 %172(ptr noundef %173, ptr noundef %174, ptr noundef %175, i64 noundef %177)
  %179 = icmp ne i32 %178, 0
  br i1 %179, label %181, label %180

180:                                              ; preds = %167
  store i32 0, ptr %6, align 4
  store i32 1, ptr %15, align 4
  br label %203

181:                                              ; preds = %167
  %182 = load i32, ptr %11, align 4, !tbaa !6
  %183 = load ptr, ptr %9, align 8, !tbaa !39
  %184 = load i32, ptr %183, align 4, !tbaa !6
  %185 = add nsw i32 %184, %182
  store i32 %185, ptr %183, align 4, !tbaa !6
  br label %186

186:                                              ; preds = %181, %156
  %187 = load i32, ptr %12, align 4, !tbaa !6
  %188 = icmp ne i32 %187, 0
  br i1 %188, label %189, label %199

189:                                              ; preds = %186
  %190 = load ptr, ptr %7, align 8, !tbaa !10
  %191 = getelementptr inbounds nuw %struct.evp_cipher_ctx_st, ptr %190, i32 0, i32 8
  %192 = getelementptr inbounds [32 x i8], ptr %191, i64 0, i64 0
  %193 = load ptr, ptr %10, align 8, !tbaa !25
  %194 = load i32, ptr %11, align 4, !tbaa !6
  %195 = sext i32 %194 to i64
  %196 = getelementptr inbounds i8, ptr %193, i64 %195
  %197 = load i32, ptr %12, align 4, !tbaa !6
  %198 = sext i32 %197 to i64
  call void @llvm.memcpy.p0.p0.i64(ptr align 4 %192, ptr align 1 %196, i64 %198, i1 false)
  br label %199

199:                                              ; preds = %189, %186
  %200 = load i32, ptr %12, align 4, !tbaa !6
  %201 = load ptr, ptr %7, align 8, !tbaa !10
  %202 = getelementptr inbounds nuw %struct.evp_cipher_ctx_st, ptr %201, i32 0, i32 9
  store i32 %200, ptr %202, align 4, !tbaa !33
  store i32 1, ptr %6, align 4
  store i32 1, ptr %15, align 4
  br label %203

203:                                              ; preds = %199, %180, %138, %97, %78, %75, %45, %41, %37
  call void @llvm.lifetime.end.p0(i64 4, ptr %14) #7
  call void @llvm.lifetime.end.p0(i64 4, ptr %13) #7
  call void @llvm.lifetime.end.p0(i64 4, ptr %12) #7
  %204 = load i32, ptr %6, align 4
  ret i32 %204
}