; Function Attrs: nounwind uwtable
define hidden range(i32 0, 2) i32 @EVP_EncryptUpdate(ptr noundef %0, ptr noundef %1, ptr noundef captures(none) %2, ptr noundef %3, i32 noundef %4) local_unnamed_addr #0 {
  %6 = load ptr, ptr %0, align 8, !tbaa !6
  %7 = getelementptr inbounds nuw i8, ptr %6, i64 20
  %8 = load i32, ptr %7, align 4, !tbaa !17
  %9 = and i32 %8, 1024
  %.not = icmp eq i32 %9, 0
  br i1 %.not, label %17, label %10

10:                                               ; preds = %5
  %11 = getelementptr inbounds nuw i8, ptr %6, i64 40
  %12 = load ptr, ptr %11, align 8, !tbaa !30
  %13 = sext i32 %4 to i64
  %14 = tail call i32 %12(ptr noundef nonnull %0, ptr noundef %1, ptr noundef %3, i64 noundef %13) #14
  %15 = icmp slt i32 %14, 0
  br i1 %15, label %86, label %16

16:                                               ; preds = %10
  store i32 %14, ptr %2, align 4, !tbaa !31
  br label %86

17:                                               ; preds = %5
  %18 = icmp slt i32 %4, 1
  br i1 %18, label %19, label %22

19:                                               ; preds = %17
  store i32 0, ptr %2, align 4, !tbaa !31
  %20 = icmp eq i32 %4, 0
  %21 = zext i1 %20 to i32
  br label %86

22:                                               ; preds = %17
  %23 = getelementptr inbounds nuw i8, ptr %0, i64 100
  %24 = load i32, ptr %23, align 4, !tbaa !26
  %25 = icmp eq i32 %24, 0
  br i1 %25, label %26, label %38

26:                                               ; preds = %22
  %27 = getelementptr inbounds nuw i8, ptr %0, i64 112
  %28 = load i32, ptr %27, align 8, !tbaa !29
  %29 = and i32 %28, %4
  %30 = icmp eq i32 %29, 0
  br i1 %30, label %31, label %.thread

31:                                               ; preds = %26
  %32 = getelementptr inbounds nuw i8, ptr %6, i64 40
  %33 = load ptr, ptr %32, align 8, !tbaa !30
  %34 = zext nneg i32 %4 to i64
  %35 = tail call i32 %33(ptr noundef nonnull %0, ptr noundef %1, ptr noundef %3, i64 noundef %34) #14
  %.not88 = icmp eq i32 %35, 0
  br i1 %.not88, label %37, label %36

36:                                               ; preds = %31
  store i32 %4, ptr %2, align 4, !tbaa !31
  br label %86

37:                                               ; preds = %31
  store i32 0, ptr %2, align 4, !tbaa !31
  br label %86

38:                                               ; preds = %22
  %39 = getelementptr inbounds nuw i8, ptr %6, i64 4
  %40 = load i32, ptr %39, align 4, !tbaa !28
  %41 = add nsw i32 %24, %4
  %42 = icmp slt i32 %41, %40
  br i1 %42, label %43, label %50

43:                                               ; preds = %38
  %44 = getelementptr inbounds nuw i8, ptr %0, i64 68
  %45 = sext i32 %24 to i64
  %46 = getelementptr inbounds [32 x i8], ptr %44, i64 0, i64 %45
  %47 = zext nneg i32 %4 to i64
  tail call void @llvm.memcpy.p0.p0.i64(ptr nonnull align 1 %46, ptr align 1 %3, i64 %47, i1 false)
  %48 = load i32, ptr %23, align 4, !tbaa !26
  %49 = add nsw i32 %48, %4
  store i32 %49, ptr %23, align 4, !tbaa !26
  store i32 0, ptr %2, align 4, !tbaa !31
  br label %86

50:                                               ; preds = %38
  %51 = sub nsw i32 %40, %24
  %52 = getelementptr inbounds nuw i8, ptr %0, i64 68
  %53 = sext i32 %24 to i64
  %54 = getelementptr inbounds [32 x i8], ptr %52, i64 0, i64 %53
  %55 = sext i32 %51 to i64
  tail call void @llvm.memcpy.p0.p0.i64(ptr nonnull align 1 %54, ptr align 1 %3, i64 %55, i1 false)
  %56 = load ptr, ptr %0, align 8, !tbaa !6
  %57 = getelementptr inbounds nuw i8, ptr %56, i64 40
  %58 = load ptr, ptr %57, align 8, !tbaa !30
  %59 = sext i32 %40 to i64
  %60 = tail call i32 %58(ptr noundef nonnull %0, ptr noundef %1, ptr noundef nonnull %52, i64 noundef %59) #14
  %.not85 = icmp eq i32 %60, 0
  br i1 %.not85, label %86, label %61

61:                                               ; preds = %50
  %62 = sub nsw i32 %4, %51
  %63 = getelementptr inbounds i8, ptr %3, i64 %55
  %64 = getelementptr inbounds i8, ptr %1, i64 %59
  br label %.thread

.thread:                                          ; preds = %26, %61
  %storemerge = phi i32 [ %40, %61 ], [ 0, %26 ]
  %.077 = phi ptr [ %63, %61 ], [ %3, %26 ]
  %.076 = phi i32 [ %62, %61 ], [ %4, %26 ]
  %.075 = phi ptr [ %64, %61 ], [ %1, %26 ]
  store i32 %storemerge, ptr %2, align 4, !tbaa !31
  %65 = getelementptr inbounds nuw i8, ptr %0, i64 112
  %66 = load i32, ptr %65, align 8, !tbaa !29
  %67 = and i32 %66, %.076
  %68 = sub nsw i32 %.076, %67
  %69 = icmp sgt i32 %68, 0
  br i1 %69, label %70, label %79

70:                                               ; preds = %.thread
  %71 = load ptr, ptr %0, align 8, !tbaa !6
  %72 = getelementptr inbounds nuw i8, ptr %71, i64 40
  %73 = load ptr, ptr %72, align 8, !tbaa !30
  %74 = zext nneg i32 %68 to i64
  %75 = tail call i32 %73(ptr noundef nonnull %0, ptr noundef %.075, ptr noundef %.077, i64 noundef %74) #14
  %.not86 = icmp eq i32 %75, 0
  br i1 %.not86, label %86, label %76

76:                                               ; preds = %70
  %77 = load i32, ptr %2, align 4, !tbaa !31
  %78 = add nsw i32 %77, %68
  store i32 %78, ptr %2, align 4, !tbaa !31
  br label %79

79:                                               ; preds = %76, %.thread
  %.not87 = icmp eq i32 %67, 0
  br i1 %.not87, label %85, label %80

80:                                               ; preds = %79
  %81 = getelementptr inbounds nuw i8, ptr %0, i64 68
  %82 = sext i32 %68 to i64
  %83 = getelementptr inbounds i8, ptr %.077, i64 %82
  %84 = sext i32 %67 to i64
  tail call void @llvm.memcpy.p0.p0.i64(ptr nonnull align 4 %81, ptr align 1 %83, i64 %84, i1 false)
  br label %85

85:                                               ; preds = %80, %79
  store i32 %67, ptr %23, align 4, !tbaa !26
  br label %86

86:                                               ; preds = %70, %50, %10, %85, %43, %37, %36, %19, %16
  %.0 = phi i32 [ 1, %16 ], [ %21, %19 ], [ 1, %36 ], [ 0, %37 ], [ 1, %43 ], [ 1, %85 ], [ 0, %10 ], [ 0, %50 ], [ 0, %70 ]
  ret i32 %.0
}